target datalayout = "e-m:e-p270:32:32-p271:32:32-p272:64:64-i64:64-i128:128-f80:128-n8:16:32:64-S128"
target triple = "x86_64-pc-linux-gnu"

%"class.llvm::MCRegisterClass" = type { ptr, ptr, i32, i16, i16, i16, i16, i8, i8, i8 }
%"class.llvm::TargetRegisterClass" = type { ptr, ptr, ptr, %"struct.llvm::LaneBitmask", i8, i8, i8, i8, i8, ptr, ptr }
%"struct.llvm::LaneBitmask" = type { i64 }
%"class.llvm::MCRegister" = type { i32 }
%"class.llvm::Register" = type { i32 }

@_ZN4llvmL26CSR_AArch64_AAPCS_SaveListE = internal constant [21 x i16] [i16 256, i16 257, i16 258, i16 259, i16 260, i16 261, i16 262, i16 263, i16 264, i16 265, i16 6, i16 2, i16 54, i16 55, i16 56, i16 57, i16 58, i16 59, i16 60, i16 61, i16 0], align 16

; Function Attrs: mustprogress nounwind uwtable
define linkonce_odr hidden noundef zeroext i1 @_ZN4llvm10MCRegister18isPhysicalRegisterEj(i32 noundef %0) #0 comdat align 2 {
  %2 = alloca i32, align 4
  store i32 %0, ptr %2, align 4
  %3 = load i32, ptr %2, align 4
  %4 = icmp ule i32 1, %3
  br i1 %4, label %5, label %8

5:                                                ; preds = %1
  %6 = load i32, ptr %2, align 4
  %7 = icmp ult i32 %6, 1073741824
  br label %8

8:                                                ; preds = %5, %1
  %9 = phi i1 [ false, %1 ], [ %7, %5 ]
  ret i1 %9
}

; Function Attrs: mustprogress nounwind uwtable
define linkonce_odr hidden noundef zeroext i1 @_ZN4llvm8Register18isPhysicalRegisterEj(i32 noundef %0) #0 comdat align 2 {
  %2 = alloca i32, align 4
  store i32 %0, ptr %2, align 4
  %3 = load i32, ptr %2, align 4
  %4 = call noundef zeroext i1 @_ZN4llvm10MCRegister18isPhysicalRegisterEj(i32 noundef %3)
  ret i1 %4
}

; Function Attrs: mustprogress nounwind uwtable
define linkonce_odr hidden noundef zeroext i1 @_ZNK4llvm15MCRegisterClass8containsENS_10MCRegisterE(ptr noundef nonnull align 8 dereferenceable(32) %0, i32 %1) #0 comdat align 2 {
  %3 = alloca i1, align 1
  %4 = alloca %"class.llvm::MCRegister", align 4
  %5 = alloca ptr, align 8
  %6 = alloca i32, align 4
  %7 = alloca i32, align 4
  %8 = alloca i32, align 4
  %9 = getelementptr inbounds nuw %"class.llvm::MCRegister", ptr %4, i32 0, i32 0
  store i32 %1, ptr %9, align 4
  store ptr %0, ptr %5, align 8
  %10 = load ptr, ptr %5, align 8
  %11 = call noundef i32 @_ZNK4llvm10MCRegistercvjEv(ptr noundef nonnull align 4 dereferenceable(4) %4)
  store i32 %11, ptr %6, align 4
  %12 = load i32, ptr %6, align 4
  %13 = urem i32 %12, 8
  store i32 %13, ptr %7, align 4
  %14 = load i32, ptr %6, align 4
  %15 = udiv i32 %14, 8
  store i32 %15, ptr %8, align 4
  %16 = load i32, ptr %8, align 4
  %17 = getelementptr inbounds nuw %"class.llvm::MCRegisterClass", ptr %10, i32 0, i32 4
  %18 = load i16, ptr %17, align 2
  %19 = zext i16 %18 to i32
  %20 = icmp uge i32 %16, %19
  br i1 %20, label %21, label %22

21:                                               ; preds = %2
  store i1 false, ptr %3, align 1
  br label %34

22:                                               ; preds = %2
  %23 = getelementptr inbounds nuw %"class.llvm::MCRegisterClass", ptr %10, i32 0, i32 1
  %24 = load ptr, ptr %23, align 8
  %25 = load i32, ptr %8, align 4
  %26 = zext i32 %25 to i64
  %27 = getelementptr inbounds i8, ptr %24, i64 %26
  %28 = load i8, ptr %27, align 1
  %29 = zext i8 %28 to i32
  %30 = load i32, ptr %7, align 4
  %31 = shl i32 1, %30
  %32 = and i32 %29, %31
  %33 = icmp ne i32 %32, 0
  store i1 %33, ptr %3, align 1
  br label %34

34:                                               ; preds = %22, %21
  %35 = load i1, ptr %3, align 1
  ret i1 %35
}

; Function Attrs: mustprogress nounwind uwtable
define linkonce_odr hidden i32 @_ZNK4llvm8Register7asMCRegEv(ptr noundef nonnull align 4 dereferenceable(4) %0) #0 comdat align 2 {
  %2 = alloca %"class.llvm::MCRegister", align 4
  %3 = alloca ptr, align 8
  store ptr %0, ptr %3, align 8
  %4 = load ptr, ptr %3, align 8
  %5 = getelementptr inbounds nuw %"class.llvm::Register", ptr %4, i32 0, i32 0
  %6 = load i32, ptr %5, align 4
  call void @_ZN4llvm10MCRegisterC2Ej(ptr noundef nonnull align 4 dereferenceable(4) %2, i32 noundef %6)
  %7 = getelementptr inbounds nuw %"class.llvm::MCRegister", ptr %2, i32 0, i32 0
  %8 = load i32, ptr %7, align 4
  ret i32 %8
}

; Function Attrs: mustprogress nounwind uwtable
define linkonce_odr hidden noundef zeroext i1 @_ZNK4llvm8Register10isPhysicalEv(ptr noundef nonnull align 4 dereferenceable(4) %0) #0 comdat align 2 {
  %2 = alloca ptr, align 8
  store ptr %0, ptr %2, align 8
  %3 = load ptr, ptr %2, align 8
  %4 = getelementptr inbounds nuw %"class.llvm::Register", ptr %3, i32 0, i32 0
  %5 = load i32, ptr %4, align 4
  %6 = call noundef zeroext i1 @_ZN4llvm8Register18isPhysicalRegisterEj(i32 noundef %5)
  ret i1 %6
}

; Function Attrs: mustprogress nounwind uwtable
define linkonce_odr hidden noundef i32 @_ZNK4llvm10MCRegistercvjEv(ptr noundef nonnull align 4 dereferenceable(4) %0) #0 comdat align 2 {
  %2 = alloca ptr, align 8
  store ptr %0, ptr %2, align 8
  %3 = load ptr, ptr %2, align 8
  %4 = getelementptr inbounds nuw %"class.llvm::MCRegister", ptr %3, i32 0, i32 0
  %5 = load i32, ptr %4, align 4
  ret i32 %5
}

; Function Attrs: mustprogress nounwind uwtable
define linkonce_odr hidden i32 @_ZNK4llvm18TargetRegisterInfo9getSubRegENS_10MCRegisterEj(ptr noundef nonnull align 8 dereferenceable(308) %0, i32 %1, i32 noundef %2) #0 comdat align 2 {
  %4 = alloca %"class.llvm::MCRegister", align 4
  %5 = alloca %"class.llvm::MCRegister", align 4
  %6 = alloca ptr, align 8
  %7 = alloca i32, align 4
  %8 = alloca %"class.llvm::MCRegister", align 4
  %9 = getelementptr inbounds nuw %"class.llvm::MCRegister", ptr %5, i32 0, i32 0
  store i32 %1, ptr %9, align 4
  store ptr %0, ptr %6, align 8
  store i32 %2, ptr %7, align 4
  %10 = load ptr, ptr %6, align 8
  %11 = getelementptr inbounds i8, ptr %10, i64 8
  call void @llvm.memcpy.p0.p0.i64(ptr align 4 %8, ptr align 4 %5, i64 4, i1 false)
  %12 = load i32, ptr %7, align 4
  %13 = getelementptr inbounds nuw %"class.llvm::MCRegister", ptr %8, i32 0, i32 0
  %14 = load i32, ptr %13, align 4
  %15 = call i32 @_ZNK4llvm14MCRegisterInfo9getSubRegENS_10MCRegisterEj(ptr noundef nonnull align 8 dereferenceable(224) %11, i32 %14, i32 noundef %12)
  %16 = getelementptr inbounds nuw %"class.llvm::MCRegister", ptr %4, i32 0, i32 0
  store i32 %15, ptr %16, align 4
  %17 = getelementptr inbounds nuw %"class.llvm::MCRegister", ptr %4, i32 0, i32 0
  %18 = load i32, ptr %17, align 4
  ret i32 %18
}

; Function Attrs: mustprogress nounwind uwtable
define linkonce_odr hidden void @_ZN4llvm10MCRegisterC2Ej(ptr noundef nonnull align 4 dereferenceable(4) %0, i32 noundef %1) unnamed_addr #0 comdat align 2 {
  %3 = alloca ptr, align 8
  %4 = alloca i32, align 4
  store ptr %0, ptr %3, align 8
  store i32 %1, ptr %4, align 4
  %5 = load ptr, ptr %3, align 8
  %6 = getelementptr inbounds nuw %"class.llvm::MCRegister", ptr %5, i32 0, i32 0
  %7 = load i32, ptr %4, align 4
  store i32 %7, ptr %6, align 4
  ret void
}

; Function Attrs: mustprogress nounwind uwtable
define linkonce_odr hidden noundef zeroext i1 @_ZNK4llvm19TargetRegisterClass8containsENS_8RegisterE(ptr noundef nonnull align 8 dereferenceable(56) %0, i32 %1) #0 comdat align 2 {
  %3 = alloca i1, align 1
  %4 = alloca %"class.llvm::Register", align 4
  %5 = alloca ptr, align 8
  %6 = alloca %"class.llvm::MCRegister", align 4
  %7 = getelementptr inbounds nuw %"class.llvm::Register", ptr %4, i32 0, i32 0
  store i32 %1, ptr %7, align 4
  store ptr %0, ptr %5, align 8
  %8 = load ptr, ptr %5, align 8
  %9 = call noundef zeroext i1 @_ZNK4llvm8Register10isPhysicalEv(ptr noundef nonnull align 4 dereferenceable(4) %4)
  br i1 %9, label %11, label %10

10:                                               ; preds = %2
  store i1 false, ptr %3, align 1
  br label %19

11:                                               ; preds = %2
  %12 = getelementptr inbounds nuw %"class.llvm::TargetRegisterClass", ptr %8, i32 0, i32 0
  %13 = load ptr, ptr %12, align 8
  %14 = call i32 @_ZNK4llvm8Register7asMCRegEv(ptr noundef nonnull align 4 dereferenceable(4) %4)
  %15 = getelementptr inbounds nuw %"class.llvm::MCRegister", ptr %6, i32 0, i32 0
  store i32 %14, ptr %15, align 4
  %16 = getelementptr inbounds nuw %"class.llvm::MCRegister", ptr %6, i32 0, i32 0
  %17 = load i32, ptr %16, align 4
  %18 = call noundef zeroext i1 @_ZNK4llvm15MCRegisterClass8containsENS_10MCRegisterE(ptr noundef nonnull align 8 dereferenceable(32) %13, i32 %17)
  store i1 %18, ptr %3, align 1
  br label %19

19:                                               ; preds = %11, %10
  %20 = load i1, ptr %3, align 1
  ret i1 %20
}

; Function Attrs: mustprogress nounwind uwtable
define linkonce_odr hidden void @_ZN4llvm8RegisterC2Ej(ptr noundef nonnull align 4 dereferenceable(4) %0, i32 noundef %1) unnamed_addr #0 comdat align 2 {
  %3 = alloca ptr, align 8
  %4 = alloca i32, align 4
  store ptr %0, ptr %3, align 8
  store i32 %1, ptr %4, align 4
  %5 = load ptr, ptr %3, align 8
  %6 = getelementptr inbounds nuw %"class.llvm::Register", ptr %5, i32 0, i32 0
  %7 = load i32, ptr %4, align 4
  store i32 %7, ptr %6, align 4
  ret void
}

; Function Attrs: mustprogress nounwind uwtable
define dso_local noundef zeroext i1 @_ZNK4llvm19AArch64RegisterInfo11regNeedsCFIEjRj(ptr noundef nonnull align 8 dereferenceable(320) %0, i32 noundef %1, ptr noundef nonnull align 4 dereferenceable(4) %2) #0 align 2 {
  %4 = alloca i1, align 1
  %5 = alloca ptr, align 8
  %6 = alloca i32, align 4
  %7 = alloca ptr, align 8
  %8 = alloca %"class.llvm::Register", align 4
  %9 = alloca %"class.llvm::Register", align 4
  %10 = alloca %"class.llvm::MCRegister", align 4
  %11 = alloca %"class.llvm::MCRegister", align 4
  %12 = alloca i32, align 4
  store ptr %0, ptr %5, align 8
  store i32 %1, ptr %6, align 4
  store ptr %2, ptr %7, align 8
  %13 = load ptr, ptr %5, align 8
  %14 = load i32, ptr %6, align 4
  call void @_ZN4llvm8RegisterC2Ej(ptr noundef nonnull align 4 dereferenceable(4) %8, i32 noundef %14)
  %15 = getelementptr inbounds nuw %"class.llvm::Register", ptr %8, i32 0, i32 0
  %16 = load i32, ptr %15, align 4
  %17 = call noundef zeroext i1 @_ZNK4llvm19TargetRegisterClass8containsENS_8RegisterE(ptr noundef nonnull align 8 dereferenceable(56) @_ZN4llvm7AArch6411PPRRegClassE, i32 %16)
  br i1 %17, label %18, label %19

18:                                               ; preds = %3
  store i1 false, ptr %4, align 1
  br label %56

19:                                               ; preds = %3
  %20 = load i32, ptr %6, align 4
  call void @_ZN4llvm8RegisterC2Ej(ptr noundef nonnull align 4 dereferenceable(4) %9, i32 noundef %20)
  %21 = getelementptr inbounds nuw %"class.llvm::Register", ptr %9, i32 0, i32 0
  %22 = load i32, ptr %21, align 4
  %23 = call noundef zeroext i1 @_ZNK4llvm19TargetRegisterClass8containsENS_8RegisterE(ptr noundef nonnull align 8 dereferenceable(56) @_ZN4llvm7AArch6411ZPRRegClassE, i32 %22)
  br i1 %23, label %24, label %53

24:                                               ; preds = %19
  %25 = load i32, ptr %6, align 4
  call void @_ZN4llvm10MCRegisterC2Ej(ptr noundef nonnull align 4 dereferenceable(4) %11, i32 noundef %25)
  %26 = getelementptr inbounds nuw %"class.llvm::MCRegister", ptr %11, i32 0, i32 0
  %27 = load i32, ptr %26, align 4
  %28 = call i32 @_ZNK4llvm18TargetRegisterInfo9getSubRegENS_10MCRegisterEj(ptr noundef nonnull align 8 dereferenceable(308) %13, i32 %27, i32 noundef 2)
  %29 = getelementptr inbounds nuw %"class.llvm::MCRegister", ptr %10, i32 0, i32 0
  store i32 %28, ptr %29, align 4
  %30 = call noundef i32 @_ZNK4llvm10MCRegistercvjEv(ptr noundef nonnull align 4 dereferenceable(4) %10)
  %31 = load ptr, ptr %7, align 8
  store i32 %30, ptr %31, align 4
  store i32 0, ptr %12, align 4
  br label %32

32:                                               ; preds = %49, %24
  %33 = load i32, ptr %12, align 4
  %34 = sext i32 %33 to i64
  %35 = getelementptr inbounds [21 x i16], ptr @_ZN4llvmL26CSR_AArch64_AAPCS_SaveListE, i64 0, i64 %34
  %36 = load i16, ptr %35, align 2
  %37 = icmp ne i16 %36, 0
  br i1 %37, label %38, label %52

38:                                               ; preds = %32
  %39 = load i32, ptr %12, align 4
  %40 = sext i32 %39 to i64
  %41 = getelementptr inbounds [21 x i16], ptr @_ZN4llvmL26CSR_AArch64_AAPCS_SaveListE, i64 0, i64 %40
  %42 = load i16, ptr %41, align 2
  %43 = zext i16 %42 to i32
  %44 = load ptr, ptr %7, align 8
  %45 = load i32, ptr %44, align 4
  %46 = icmp eq i32 %43, %45
  br i1 %46, label %47, label %48

47:                                               ; preds = %38
  store i1 true, ptr %4, align 1
  br label %56

48:                                               ; preds = %38
  br label %49

49:                                               ; preds = %48
  %50 = load i32, ptr %12, align 4
  %51 = add nsw i32 %50, 1
  store i32 %51, ptr %12, align 4
  br label %32, !llvm.loop !7

52:                                               ; preds = %32
  store i1 false, ptr %4, align 1
  br label %56

53:                                               ; preds = %19
  %54 = load i32, ptr %6, align 4
  %55 = load ptr, ptr %7, align 8
  store i32 %54, ptr %55, align 4
  store i1 true, ptr %4, align 1
  br label %56

56:                                               ; preds = %53, %52, %47, %18
  %57 = load i1, ptr %4, align 1
  ret i1 %57
}