; Function Attrs: mustprogress nounwind uwtable
define dso_local noundef zeroext i1 @_ZNK4llvm19AArch64RegisterInfo11regNeedsCFIEjRj(ptr noundef nonnull align 8 dereferenceable(320) %0, i32 noundef %1, ptr nocapture noundef nonnull writeonly align 4 dereferenceable(4) %2) local_unnamed_addr #2 align 2 {
  %4 = add i32 %1, -1
  %5 = icmp ult i32 %4, 1073741823
  br i1 %5, label %6, label %_ZNK4llvm19TargetRegisterClass8containsENS_8RegisterE.exit15.thread

6:                                                ; preds = %3
  %7 = lshr i32 %1, 3
  %8 = load i16, ptr getelementptr (i8, ptr @_ZN4llvm24AArch64MCRegisterClassesE, i64 182), align 2
  %9 = zext i16 %8 to i32
  %.not.i.i = icmp ult i32 %7, %9
  br i1 %.not.i.i, label %_ZNK4llvm19TargetRegisterClass8containsENS_8RegisterE.exit, label %.thread20

_ZNK4llvm19TargetRegisterClass8containsENS_8RegisterE.exit: ; preds = %6
  %10 = and i32 %1, 7
  %11 = load ptr, ptr getelementptr (i8, ptr @_ZN4llvm24AArch64MCRegisterClassesE, i64 168), align 8
  %12 = zext nneg i32 %7 to i64
  %13 = getelementptr inbounds i8, ptr %11, i64 %12
  %14 = load i8, ptr %13, align 1
  %15 = zext i8 %14 to i32
  %16 = shl nuw nsw i32 1, %10
  %17 = and i32 %16, %15
  %.not22 = icmp eq i32 %17, 0
  br i1 %.not22, label %.thread20, label %.loopexit

.thread20:                                        ; preds = %_ZNK4llvm19TargetRegisterClass8containsENS_8RegisterE.exit, %6
  %18 = load i16, ptr getelementptr (i8, ptr @_ZN4llvm24AArch64MCRegisterClassesE, i64 2454), align 2
  %19 = zext i16 %18 to i32
  %.not.i.i14 = icmp ult i32 %7, %19
  br i1 %.not.i.i14, label %_ZNK4llvm19TargetRegisterClass8containsENS_8RegisterE.exit15, label %_ZNK4llvm19TargetRegisterClass8containsENS_8RegisterE.exit15.thread

_ZNK4llvm19TargetRegisterClass8containsENS_8RegisterE.exit15: ; preds = %.thread20
  %20 = and i32 %1, 7
  %21 = load ptr, ptr getelementptr (i8, ptr @_ZN4llvm24AArch64MCRegisterClassesE, i64 2440), align 8
  %22 = zext nneg i32 %7 to i64
  %23 = getelementptr inbounds i8, ptr %21, i64 %22
  %24 = load i8, ptr %23, align 1
  %25 = zext i8 %24 to i32
  %26 = shl nuw nsw i32 1, %20
  %27 = and i32 %26, %25
  %.not23 = icmp eq i32 %27, 0
  br i1 %.not23, label %_ZNK4llvm19TargetRegisterClass8containsENS_8RegisterE.exit15.thread, label %28

28:                                               ; preds = %_ZNK4llvm19TargetRegisterClass8containsENS_8RegisterE.exit15
  %29 = getelementptr inbounds i8, ptr %0, i64 8
  %30 = tail call i32 @_ZNK4llvm14MCRegisterInfo9getSubRegENS_10MCRegisterEj(ptr noundef nonnull align 8 dereferenceable(224) %29, i32 %1, i32 noundef 2) #18
  store i32 %30, ptr %2, align 4
  br label %31

31:                                               ; preds = %31, %28
  %indvars.iv = phi i64 [ 0, %28 ], [ %indvars.iv.next, %31 ]
  %32 = getelementptr inbounds [21 x i16], ptr @_ZN4llvmL26CSR_AArch64_AAPCS_SaveListE, i64 0, i64 %indvars.iv
  %33 = load i16, ptr %32, align 2
  %34 = zext i16 %33 to i32
  %35 = icmp eq i32 %30, %34
  %indvars.iv.next = add nuw nsw i64 %indvars.iv, 1
  %.not = icmp eq i64 %indvars.iv.next, 20
  %or.cond = select i1 %35, i1 true, i1 %.not
  br i1 %or.cond, label %.loopexit, label %31, !llvm.loop !8

_ZNK4llvm19TargetRegisterClass8containsENS_8RegisterE.exit15.thread: ; preds = %3, %.thread20, %_ZNK4llvm19TargetRegisterClass8containsENS_8RegisterE.exit15
  store i32 %1, ptr %2, align 4
  br label %.loopexit

.loopexit:                                        ; preds = %31, %_ZNK4llvm19TargetRegisterClass8containsENS_8RegisterE.exit, %_ZNK4llvm19TargetRegisterClass8containsENS_8RegisterE.exit15.thread
  %.011 = phi i1 [ true, %_ZNK4llvm19TargetRegisterClass8containsENS_8RegisterE.exit15.thread ], [ false, %_ZNK4llvm19TargetRegisterClass8containsENS_8RegisterE.exit ], [ %35, %31 ]
  ret i1 %.011
}